; Function Attrs: nofree norecurse nosync nounwind memory(argmem: readwrite) uwtable
define hidden range(i32 0, 256) i32 @process_netbios_name(ptr noundef readonly captures(none) %0, ptr noundef %1, i32 noundef %2) local_unnamed_addr #0 {
  %4 = getelementptr i8, ptr %0, i64 15
  %5 = load i8, ptr %4, align 1
  br label %6

6:                                                ; preds = %3, %42
  %.042 = phi ptr [ %0, %3 ], [ %7, %42 ]
  %.02941 = phi ptr [ %1, %3 ], [ %.4, %42 ]
  %.03040 = phi i32 [ %2, %3 ], [ %.131, %42 ]
  %.03239 = phi i32 [ 0, %3 ], [ %43, %42 ]
  %7 = getelementptr i8, ptr %.042, i64 1
  %8 = load i8, ptr %.042, align 1
  %9 = zext i8 %8 to i32
  %10 = add i8 %8, -32
  %or.cond = icmp ult i8 %10, 95
  %11 = add i32 %.03040, -1
  %12 = icmp sgt i32 %11, 0
  br i1 %or.cond, label %13, label %16

13:                                               ; preds = %6
  br i1 %12, label %14, label %42

14:                                               ; preds = %13
  %15 = getelementptr i8, ptr %.02941, i64 1
  store i8 %8, ptr %.02941, align 1
  br label %42

16:                                               ; preds = %6
  br i1 %12, label %17, label %19

17:                                               ; preds = %16
  %18 = getelementptr i8, ptr %.02941, i64 1
  store i8 60, ptr %.02941, align 1
  br label %19

19:                                               ; preds = %17, %16
  %.1 = phi ptr [ %18, %17 ], [ %.02941, %16 ]
  %20 = add i32 %.03040, -2
  %21 = icmp sgt i32 %20, 0
  br i1 %21, label %22, label %28

22:                                               ; preds = %19
  %23 = lshr i32 %9, 4
  %24 = zext nneg i32 %23 to i64
  %25 = getelementptr [16 x i8], ptr @process_netbios_name.hex_digits, i64 0, i64 %24
  %26 = load i8, ptr %25, align 1
  %27 = getelementptr i8, ptr %.1, i64 1
  store i8 %26, ptr %.1, align 1
  br label %28

28:                                               ; preds = %22, %19
  %.2 = phi ptr [ %27, %22 ], [ %.1, %19 ]
  %29 = add i32 %.03040, -3
  %30 = icmp sgt i32 %29, 0
  br i1 %30, label %31, label %37

31:                                               ; preds = %28
  %32 = and i32 %9, 15
  %33 = zext nneg i32 %32 to i64
  %34 = getelementptr [16 x i8], ptr @process_netbios_name.hex_digits, i64 0, i64 %33
  %35 = load i8, ptr %34, align 1
  %36 = getelementptr i8, ptr %.2, i64 1
  store i8 %35, ptr %.2, align 1
  br label %37

37:                                               ; preds = %31, %28
  %.3 = phi ptr [ %36, %31 ], [ %.2, %28 ]
  %38 = add i32 %.03040, -4
  %39 = icmp sgt i32 %38, 0
  br i1 %39, label %40, label %42

40:                                               ; preds = %37
  %41 = getelementptr i8, ptr %.3, i64 1
  store i8 62, ptr %.3, align 1
  br label %42

42:                                               ; preds = %14, %13, %40, %37
  %.131 = phi i32 [ %11, %14 ], [ %11, %13 ], [ %38, %40 ], [ %38, %37 ]
  %.4 = phi ptr [ %15, %14 ], [ %.02941, %13 ], [ %41, %40 ], [ %.3, %37 ]
  %43 = add nuw nsw i32 %.03239, 1
  %exitcond.not = icmp eq i32 %43, 15
  br i1 %exitcond.not, label %44, label %6, !llvm.loop !4

44:                                               ; preds = %42
  store i8 0, ptr %.4, align 1
  br label %45

45:                                               ; preds = %46, %44
  %.029.pn = phi ptr [ %.4, %44 ], [ %.5, %46 ]
  %.5 = getelementptr i8, ptr %.029.pn, i64 -1
  %.not = icmp ult ptr %.5, %1
  br i1 %.not, label %.loopexit, label %46

46:                                               ; preds = %45
  %47 = load i8, ptr %.5, align 1
  %.not37 = icmp eq i8 %47, 32
  br i1 %.not37, label %45, label %48, !llvm.loop !6

48:                                               ; preds = %46
  store i8 0, ptr %.029.pn, align 1
  br label %.loopexit

.loopexit:                                        ; preds = %45, %48
  %49 = zext i8 %5 to i32
  ret i32 %49
}